#include <math.h>
#include <stdio.h>
#include <stdlib.h>
#include <string.h>


int reverse(int num,int a)
{
	a=10*a+num%10;
	if(num>9||num<-9) return (reverse(num/10,a));
	return a;
}

int main()
{
	int num,i;
	for(i=1;i<=6;i++)
	{
		scanf("%d",&num);
		printf("%d\n",reverse(num,0));
	}
		return 0;
}
