; ModuleID = '44/155.c'
source_filename = "44/155.c"
target datalayout = "e-m:e-p270:32:32-p271:32:32-p272:64:64-i64:64-f80:128-n8:16:32:64-S128"
target triple = "x86_64-pc-linux-gnu"

@.str = private unnamed_addr constant [3 x i8] c"%d\00", align 1
@.str.1 = private unnamed_addr constant [4 x i8] c"%d\0A\00", align 1

; Function Attrs: noinline nounwind uwtable
define dso_local i32 @reverse(i32 %0, i32 %1) #0 {
  %3 = alloca i32, align 4
  %4 = alloca i32, align 4
  %5 = alloca i32, align 4
  store i32 %0, i32* %4, align 4
  store i32 %1, i32* %5, align 4
  %6 = load i32, i32* %5, align 4
  %7 = mul nsw i32 10, %6
  %8 = load i32, i32* %4, align 4
  %9 = srem i32 %8, 10
  %10 = add nsw i32 %7, %9
  store i32 %10, i32* %5, align 4
  %11 = load i32, i32* %4, align 4
  %12 = icmp sgt i32 %11, 9
  br i1 %12, label %16, label %13

13:                                               ; preds = %2
  %14 = load i32, i32* %4, align 4
  %15 = icmp slt i32 %14, -9
  br i1 %15, label %16, label %21

16:                                               ; preds = %13, %2
  %17 = load i32, i32* %4, align 4
  %18 = sdiv i32 %17, 10
  %19 = load i32, i32* %5, align 4
  %20 = call i32 @reverse(i32 %18, i32 %19)
  store i32 %20, i32* %3, align 4
  br label %23

21:                                               ; preds = %13
  %22 = load i32, i32* %5, align 4
  store i32 %22, i32* %3, align 4
  br label %23

23:                                               ; preds = %21, %16
  %24 = load i32, i32* %3, align 4
  ret i32 %24
}

; Function Attrs: noinline nounwind uwtable
define dso_local i32 @main() #0 {
  %1 = alloca i32, align 4
  %2 = alloca i32, align 4
  %3 = alloca i32, align 4
  store i32 0, i32* %1, align 4
  store i32 1, i32* %3, align 4
  br label %4

4:                                                ; preds = %12, %0
  %5 = load i32, i32* %3, align 4
  %6 = icmp sle i32 %5, 6
  br i1 %6, label %7, label %15

7:                                                ; preds = %4
  %8 = call i32 (i8*, ...) @__isoc99_scanf(i8* getelementptr inbounds ([3 x i8], [3 x i8]* @.str, i64 0, i64 0), i32* %2)
  %9 = load i32, i32* %2, align 4
  %10 = call i32 @reverse(i32 %9, i32 0)
  %11 = call i32 (i8*, ...) @printf(i8* getelementptr inbounds ([4 x i8], [4 x i8]* @.str.1, i64 0, i64 0), i32 %10)
  br label %12

12:                                               ; preds = %7
  %13 = load i32, i32* %3, align 4
  %14 = add nsw i32 %13, 1
  store i32 %14, i32* %3, align 4
  br label %4

15:                                               ; preds = %4
  ret i32 0
}

declare dso_local i32 @__isoc99_scanf(i8*, ...) #1

declare dso_local i32 @printf(i8*, ...) #1


!llvm.module.flags = !{!0}
!llvm.ident = !{!1}

!0 = !{i32 1, !"wchar_size", i32 4}
!1 = !{!"clang version 10.0.0-4ubuntu1 "}
